target datalayout = "e-m:e-p270:32:32-p271:32:32-p272:64:64-i64:64-i128:128-f80:128-n8:16:32:64-S128"
target triple = "x86_64-pc-linux-gnu"

%"struct.(anonymous namespace)::ll_escaped" = type { ptr }
%"class.std::locale" = type { ptr }
%"class.std::ios_base" = type { ptr, i64, i64, i32, i32, i32, ptr, %"struct.std::ios_base::_Words", [8 x %"struct.std::ios_base::_Words"], i32, ptr, %"class.std::locale" }
%"struct.std::ios_base::_Words" = type { ptr, i64 }

@__const._ZN12_GLOBAL__N_1lsERSoRKNS_10ll_escapedE.str = private unnamed_addr constant [4 x i8] c"000\00", align 1

; Function Attrs: inlinehint mustprogress nounwind uwtable
define linkonce_odr noundef i32 @_ZStorSt12_Ios_IostateS_(i32 noundef %0, i32 noundef %1) #13 comdat {
  %3 = alloca i32, align 4
  %4 = alloca i32, align 4
  store i32 %0, ptr %3, align 4, !tbaa !60
  store i32 %1, ptr %4, align 4, !tbaa !60
  %5 = load i32, ptr %3, align 4, !tbaa !60
  %6 = load i32, ptr %4, align 4, !tbaa !60
  %7 = or i32 %5, %6
  ret i32 %7
}

; Function Attrs: mustprogress nounwind uwtable
define available_externally noundef i32 @_ZNKSt9basic_iosIcSt11char_traitsIcEE7rdstateEv(ptr noundef nonnull align 8 dereferenceable(264) %0) #7 align 2 {
  %2 = alloca ptr, align 8
  store ptr %0, ptr %2, align 8, !tbaa !44
  %3 = load ptr, ptr %2, align 8
  %4 = getelementptr inbounds nuw %"class.std::ios_base", ptr %3, i32 0, i32 5
  %5 = load i32, ptr %4, align 8, !tbaa !62
  ret i32 %5
}

; Function Attrs: mustprogress nounwind uwtable
define linkonce_odr hidden noundef i64 @_ZNSt11char_traitsIcE6lengthEPKc(ptr noundef %0) #7 comdat align 2 {
  %2 = alloca ptr, align 8
  store ptr %0, ptr %2, align 8, !tbaa !12
  %3 = load ptr, ptr %2, align 8, !tbaa !12
  %4 = call i64 @strlen(ptr noundef %3) #3
  ret i64 %4
}

; Function Attrs: mustprogress uwtable
define available_externally void @_ZNSt9basic_iosIcSt11char_traitsIcEE8setstateESt12_Ios_Iostate(ptr noundef nonnull align 8 dereferenceable(264) %0, i32 noundef %1) #4 align 2 {
  %3 = alloca ptr, align 8
  %4 = alloca i32, align 4
  store ptr %0, ptr %3, align 8, !tbaa !44
  store i32 %1, ptr %4, align 4, !tbaa !60
  %5 = load ptr, ptr %3, align 8
  %6 = call noundef i32 @_ZNKSt9basic_iosIcSt11char_traitsIcEE7rdstateEv(ptr noundef nonnull align 8 dereferenceable(264) %5)
  %7 = load i32, ptr %4, align 4, !tbaa !60
  %8 = call noundef i32 @_ZStorSt12_Ios_IostateS_(i32 noundef %6, i32 noundef %7)
  call void @_ZNSt9basic_iosIcSt11char_traitsIcEE5clearESt12_Ios_Iostate(ptr noundef nonnull align 8 dereferenceable(264) %5, i32 noundef %8)
  ret void
}

; Function Attrs: inlinehint mustprogress uwtable
define available_externally noundef nonnull align 8 dereferenceable(8) ptr @_ZStlsISt11char_traitsIcEERSt13basic_ostreamIcT_ES5_PKc(ptr noundef nonnull align 8 dereferenceable(8) %0, ptr noundef %1) #5 {
  %3 = alloca ptr, align 8
  %4 = alloca ptr, align 8
  store ptr %0, ptr %3, align 8, !tbaa !7
  store ptr %1, ptr %4, align 8, !tbaa !12
  %5 = load ptr, ptr %4, align 8, !tbaa !12
  %6 = icmp ne ptr %5, null
  br i1 %6, label %13, label %7

7:                                                ; preds = %2
  %8 = load ptr, ptr %3, align 8, !tbaa !7
  %9 = load ptr, ptr %8, align 8, !tbaa !10
  %10 = getelementptr i8, ptr %9, i64 -24
  %11 = load i64, ptr %10, align 8
  %12 = getelementptr inbounds i8, ptr %8, i64 %11
  call void @_ZNSt9basic_iosIcSt11char_traitsIcEE8setstateESt12_Ios_Iostate(ptr noundef nonnull align 8 dereferenceable(264) %12, i32 noundef 1)
  br label %19

13:                                               ; preds = %2
  %14 = load ptr, ptr %3, align 8, !tbaa !7
  %15 = load ptr, ptr %4, align 8, !tbaa !12
  %16 = load ptr, ptr %4, align 8, !tbaa !12
  %17 = call noundef i64 @_ZNSt11char_traitsIcE6lengthEPKc(ptr noundef %16)
  %18 = call noundef nonnull align 8 dereferenceable(8) ptr @_ZSt16__ostream_insertIcSt11char_traitsIcEERSt13basic_ostreamIT_T0_ES6_PKS3_l(ptr noundef nonnull align 8 dereferenceable(8) %14, ptr noundef %15, i64 noundef %17)
  br label %19

19:                                               ; preds = %13, %7
  %20 = load ptr, ptr %3, align 8, !tbaa !7
  ret ptr %20
}

; Function Attrs: mustprogress nounwind uwtable
define linkonce_odr hidden noundef i64 @_ZNKSt8ios_base5widthEv(ptr noundef nonnull align 8 dereferenceable(216) %0) #7 comdat align 2 {
  %2 = alloca ptr, align 8
  store ptr %0, ptr %2, align 8, !tbaa !70
  %3 = load ptr, ptr %2, align 8
  %4 = getelementptr inbounds nuw %"class.std::ios_base", ptr %3, i32 0, i32 2
  %5 = load i64, ptr %4, align 8, !tbaa !72
  ret i64 %5
}

; Function Attrs: inlinehint mustprogress uwtable
define available_externally noundef nonnull align 8 dereferenceable(8) ptr @_ZStlsISt11char_traitsIcEERSt13basic_ostreamIcT_ES5_PKh(ptr noundef nonnull align 8 dereferenceable(8) %0, ptr noundef %1) #5 {
  %3 = alloca ptr, align 8
  %4 = alloca ptr, align 8
  store ptr %0, ptr %3, align 8, !tbaa !7
  store ptr %1, ptr %4, align 8, !tbaa !12
  %5 = load ptr, ptr %3, align 8, !tbaa !7
  %6 = load ptr, ptr %4, align 8, !tbaa !12
  %7 = call noundef nonnull align 8 dereferenceable(8) ptr @_ZStlsISt11char_traitsIcEERSt13basic_ostreamIcT_ES5_PKc(ptr noundef nonnull align 8 dereferenceable(8) %5, ptr noundef %6)
  ret ptr %7
}

; Function Attrs: inlinehint mustprogress uwtable
define available_externally noundef nonnull align 8 dereferenceable(8) ptr @_ZStlsISt11char_traitsIcEERSt13basic_ostreamIcT_ES5_c(ptr noundef nonnull align 8 dereferenceable(8) %0, i8 noundef signext %1) #5 {
  %3 = alloca ptr, align 8
  %4 = alloca ptr, align 8
  %5 = alloca i8, align 1
  store ptr %0, ptr %4, align 8, !tbaa !7
  store i8 %1, ptr %5, align 1, !tbaa !9
  %6 = load ptr, ptr %4, align 8, !tbaa !7
  %7 = load ptr, ptr %6, align 8, !tbaa !10
  %8 = getelementptr i8, ptr %7, i64 -24
  %9 = load i64, ptr %8, align 8
  %10 = getelementptr inbounds i8, ptr %6, i64 %9
  %11 = call noundef i64 @_ZNKSt8ios_base5widthEv(ptr noundef nonnull align 8 dereferenceable(216) %10)
  %12 = icmp ne i64 %11, 0
  br i1 %12, label %13, label %16

13:                                               ; preds = %2
  %14 = load ptr, ptr %4, align 8, !tbaa !7
  %15 = call noundef nonnull align 8 dereferenceable(8) ptr @_ZSt16__ostream_insertIcSt11char_traitsIcEERSt13basic_ostreamIT_T0_ES6_PKS3_l(ptr noundef nonnull align 8 dereferenceable(8) %14, ptr noundef %5, i64 noundef 1)
  store ptr %15, ptr %3, align 8
  br label %21

16:                                               ; preds = %2
  %17 = load ptr, ptr %4, align 8, !tbaa !7
  %18 = load i8, ptr %5, align 1, !tbaa !9
  %19 = call noundef nonnull align 8 dereferenceable(8) ptr @_ZNSo3putEc(ptr noundef nonnull align 8 dereferenceable(8) %17, i8 noundef signext %18)
  %20 = load ptr, ptr %4, align 8, !tbaa !7
  store ptr %20, ptr %3, align 8
  br label %21

21:                                               ; preds = %16, %13
  %22 = load ptr, ptr %3, align 8
  ret ptr %22
}

; Function Attrs: inlinehint mustprogress uwtable
define available_externally noundef nonnull align 8 dereferenceable(8) ptr @_ZStlsISt11char_traitsIcEERSt13basic_ostreamIcT_ES5_h(ptr noundef nonnull align 8 dereferenceable(8) %0, i8 noundef zeroext %1) #5 {
  %3 = alloca ptr, align 8
  %4 = alloca i8, align 1
  store ptr %0, ptr %3, align 8, !tbaa !7
  store i8 %1, ptr %4, align 1, !tbaa !9
  %5 = load ptr, ptr %3, align 8, !tbaa !7
  %6 = load i8, ptr %4, align 1, !tbaa !9
  %7 = call noundef nonnull align 8 dereferenceable(8) ptr @_ZStlsISt11char_traitsIcEERSt13basic_ostreamIcT_ES5_c(ptr noundef nonnull align 8 dereferenceable(8) %5, i8 noundef signext %6)
  ret ptr %7
}

; Function Attrs: mustprogress uwtable
define internal noundef nonnull align 8 dereferenceable(8) ptr @_ZN12_GLOBAL__N_1lsERSoRKNS_10ll_escapedE(ptr noundef nonnull align 8 dereferenceable(8) %0, ptr noundef nonnull align 8 dereferenceable(8) %1) #4 {
  %3 = alloca ptr, align 8
  %4 = alloca ptr, align 8
  %5 = alloca ptr, align 8
  %6 = alloca i8, align 1
  %7 = alloca [4 x i8], align 1
  store ptr %0, ptr %3, align 8, !tbaa !7
  store ptr %1, ptr %4, align 8, !tbaa !22
  call void @llvm.lifetime.start.p0(i64 8, ptr %5) #3
  %8 = load ptr, ptr %4, align 8, !tbaa !22
  %9 = getelementptr inbounds nuw %"struct.(anonymous namespace)::ll_escaped", ptr %8, i32 0, i32 0
  %10 = load ptr, ptr %9, align 8, !tbaa !20
  store ptr %10, ptr %5, align 8, !tbaa !12
  br label %11

11:                                               ; preds = %147, %2
  %12 = load ptr, ptr %5, align 8, !tbaa !12
  %13 = load i8, ptr %12, align 1, !tbaa !9
  %14 = icmp ne i8 %13, 0
  br i1 %14, label %15, label %150

15:                                               ; preds = %11
  call void @llvm.lifetime.start.p0(i64 1, ptr %6) #3
  %16 = load ptr, ptr %5, align 8, !tbaa !12
  %17 = load i8, ptr %16, align 1, !tbaa !9
  store i8 %17, ptr %6, align 1, !tbaa !9
  %18 = load i8, ptr %6, align 1, !tbaa !9
  %19 = zext i8 %18 to i32
  %20 = icmp sle i32 48, %19
  br i1 %20, label %21, label %25

21:                                               ; preds = %15
  %22 = load i8, ptr %6, align 1, !tbaa !9
  %23 = zext i8 %22 to i32
  %24 = icmp sle i32 %23, 57
  br i1 %24, label %113, label %25

25:                                               ; preds = %21, %15
  %26 = load i8, ptr %6, align 1, !tbaa !9
  %27 = zext i8 %26 to i32
  %28 = icmp sle i32 97, %27
  br i1 %28, label %29, label %33

29:                                               ; preds = %25
  %30 = load i8, ptr %6, align 1, !tbaa !9
  %31 = zext i8 %30 to i32
  %32 = icmp sle i32 %31, 122
  br i1 %32, label %113, label %33

33:                                               ; preds = %29, %25
  %34 = load i8, ptr %6, align 1, !tbaa !9
  %35 = zext i8 %34 to i32
  %36 = icmp sle i32 65, %35
  br i1 %36, label %37, label %41

37:                                               ; preds = %33
  %38 = load i8, ptr %6, align 1, !tbaa !9
  %39 = zext i8 %38 to i32
  %40 = icmp sle i32 %39, 90
  br i1 %40, label %113, label %41

41:                                               ; preds = %37, %33
  %42 = load i8, ptr %6, align 1, !tbaa !9
  %43 = zext i8 %42 to i32
  %44 = icmp eq i32 %43, 126
  br i1 %44, label %113, label %45

45:                                               ; preds = %41
  %46 = load i8, ptr %6, align 1, !tbaa !9
  %47 = zext i8 %46 to i32
  %48 = icmp eq i32 %47, 33
  br i1 %48, label %113, label %49

49:                                               ; preds = %45
  %50 = load i8, ptr %6, align 1, !tbaa !9
  %51 = zext i8 %50 to i32
  %52 = icmp eq i32 %51, 64
  br i1 %52, label %113, label %53

53:                                               ; preds = %49
  %54 = load i8, ptr %6, align 1, !tbaa !9
  %55 = zext i8 %54 to i32
  %56 = icmp eq i32 %55, 35
  br i1 %56, label %113, label %57

57:                                               ; preds = %53
  %58 = load i8, ptr %6, align 1, !tbaa !9
  %59 = zext i8 %58 to i32
  %60 = icmp eq i32 %59, 36
  br i1 %60, label %113, label %61

61:                                               ; preds = %57
  %62 = load i8, ptr %6, align 1, !tbaa !9
  %63 = zext i8 %62 to i32
  %64 = icmp eq i32 %63, 37
  br i1 %64, label %113, label %65

65:                                               ; preds = %61
  %66 = load i8, ptr %6, align 1, !tbaa !9
  %67 = zext i8 %66 to i32
  %68 = icmp eq i32 %67, 94
  br i1 %68, label %113, label %69

69:                                               ; preds = %65
  %70 = load i8, ptr %6, align 1, !tbaa !9
  %71 = zext i8 %70 to i32
  %72 = icmp eq i32 %71, 38
  br i1 %72, label %113, label %73

73:                                               ; preds = %69
  %74 = load i8, ptr %6, align 1, !tbaa !9
  %75 = zext i8 %74 to i32
  %76 = icmp eq i32 %75, 42
  br i1 %76, label %113, label %77

77:                                               ; preds = %73
  %78 = load i8, ptr %6, align 1, !tbaa !9
  %79 = zext i8 %78 to i32
  %80 = icmp eq i32 %79, 45
  br i1 %80, label %113, label %81

81:                                               ; preds = %77
  %82 = load i8, ptr %6, align 1, !tbaa !9
  %83 = zext i8 %82 to i32
  %84 = icmp eq i32 %83, 95
  br i1 %84, label %113, label %85

85:                                               ; preds = %81
  %86 = load i8, ptr %6, align 1, !tbaa !9
  %87 = zext i8 %86 to i32
  %88 = icmp eq i32 %87, 43
  br i1 %88, label %113, label %89

89:                                               ; preds = %85
  %90 = load i8, ptr %6, align 1, !tbaa !9
  %91 = zext i8 %90 to i32
  %92 = icmp eq i32 %91, 46
  br i1 %92, label %113, label %93

93:                                               ; preds = %89
  %94 = load i8, ptr %6, align 1, !tbaa !9
  %95 = zext i8 %94 to i32
  %96 = icmp eq i32 %95, 63
  br i1 %96, label %113, label %97

97:                                               ; preds = %93
  %98 = load i8, ptr %6, align 1, !tbaa !9
  %99 = zext i8 %98 to i32
  %100 = icmp eq i32 %99, 47
  br i1 %100, label %113, label %101

101:                                              ; preds = %97
  %102 = load i8, ptr %6, align 1, !tbaa !9
  %103 = zext i8 %102 to i32
  %104 = icmp eq i32 %103, 32
  br i1 %104, label %113, label %105

105:                                              ; preds = %101
  %106 = load i8, ptr %6, align 1, !tbaa !9
  %107 = zext i8 %106 to i32
  %108 = icmp eq i32 %107, 60
  br i1 %108, label %113, label %109

109:                                              ; preds = %105
  %110 = load i8, ptr %6, align 1, !tbaa !9
  %111 = zext i8 %110 to i32
  %112 = icmp eq i32 %111, 62
  br i1 %112, label %113, label %117

113:                                              ; preds = %109, %105, %101, %97, %93, %89, %85, %81, %77, %73, %69, %65, %61, %57, %53, %49, %45, %41, %37, %29, %21
  %114 = load ptr, ptr %3, align 8, !tbaa !7
  %115 = load i8, ptr %6, align 1, !tbaa !9
  %116 = call noundef nonnull align 8 dereferenceable(8) ptr @_ZStlsISt11char_traitsIcEERSt13basic_ostreamIcT_ES5_h(ptr noundef nonnull align 8 dereferenceable(8) %114, i8 noundef zeroext %115)
  br label %147

117:                                              ; preds = %109
  call void @llvm.lifetime.start.p0(i64 4, ptr %7) #3
  call void @llvm.memcpy.p0.p0.i64(ptr align 1 %7, ptr align 1 @__const._ZN12_GLOBAL__N_1lsERSoRKNS_10ll_escapedE.str, i64 4, i1 false)
  %118 = load i8, ptr %6, align 1, !tbaa !9
  %119 = zext i8 %118 to i32
  %120 = srem i32 %119, 10
  %121 = add nsw i32 48, %120
  %122 = trunc i32 %121 to i8
  %123 = getelementptr inbounds [4 x i8], ptr %7, i64 0, i64 2
  store i8 %122, ptr %123, align 1, !tbaa !9
  %124 = load i8, ptr %6, align 1, !tbaa !9
  %125 = zext i8 %124 to i32
  %126 = sdiv i32 %125, 10
  %127 = trunc i32 %126 to i8
  store i8 %127, ptr %6, align 1, !tbaa !9
  %128 = load i8, ptr %6, align 1, !tbaa !9
  %129 = zext i8 %128 to i32
  %130 = srem i32 %129, 10
  %131 = add nsw i32 48, %130
  %132 = trunc i32 %131 to i8
  %133 = getelementptr inbounds [4 x i8], ptr %7, i64 0, i64 1
  store i8 %132, ptr %133, align 1, !tbaa !9
  %134 = load i8, ptr %6, align 1, !tbaa !9
  %135 = zext i8 %134 to i32
  %136 = sdiv i32 %135, 10
  %137 = trunc i32 %136 to i8
  store i8 %137, ptr %6, align 1, !tbaa !9
  %138 = load i8, ptr %6, align 1, !tbaa !9
  %139 = zext i8 %138 to i32
  %140 = add nsw i32 48, %139
  %141 = trunc i32 %140 to i8
  %142 = getelementptr inbounds [4 x i8], ptr %7, i64 0, i64 0
  store i8 %141, ptr %142, align 1, !tbaa !9
  %143 = load ptr, ptr %3, align 8, !tbaa !7
  %144 = call noundef nonnull align 8 dereferenceable(8) ptr @_ZStlsISt11char_traitsIcEERSt13basic_ostreamIcT_ES5_c(ptr noundef nonnull align 8 dereferenceable(8) %143, i8 noundef signext 92)
  %145 = getelementptr inbounds [4 x i8], ptr %7, i64 0, i64 0
  %146 = call noundef nonnull align 8 dereferenceable(8) ptr @_ZStlsISt11char_traitsIcEERSt13basic_ostreamIcT_ES5_PKh(ptr noundef nonnull align 8 dereferenceable(8) %144, ptr noundef %145)
  call void @llvm.lifetime.end.p0(i64 4, ptr %7) #3
  br label %147

147:                                              ; preds = %117, %113
  %148 = load ptr, ptr %5, align 8, !tbaa !12
  %149 = getelementptr inbounds nuw i8, ptr %148, i32 1
  store ptr %149, ptr %5, align 8, !tbaa !12
  call void @llvm.lifetime.end.p0(i64 1, ptr %6) #3
  br label %11, !llvm.loop !24

150:                                              ; preds = %11
  %151 = load ptr, ptr %3, align 8, !tbaa !7
  call void @llvm.lifetime.end.p0(i64 8, ptr %5) #3
  ret ptr %151
}