; Function Attrs: mustprogress uwtable
define internal fastcc noundef nonnull align 8 dereferenceable(8) ptr @_ZN12_GLOBAL__N_1lsERSoRKNS_10ll_escapedE(ptr noundef nonnull returned align 8 dereferenceable(8) %0, ptr readonly captures(none) %.0.val) unnamed_addr #3 {
  %2 = alloca i8, align 1
  %3 = alloca i8, align 1
  %4 = alloca [4 x i8], align 4
  %invariant.gep = getelementptr i8, ptr %0, i64 16
  %5 = load i8, ptr %.0.val, align 1, !tbaa !8
  %.fr15 = freeze i8 %5
  %.not6 = icmp eq i8 %.fr15, 0
  br i1 %.not6, label %._crit_edge, label %.lr.ph

.lr.ph:                                           ; preds = %1
  %6 = getelementptr inbounds nuw i8, ptr %4, i64 2
  %7 = getelementptr inbounds nuw i8, ptr %4, i64 1
  br label %8

8:                                                ; preds = %.lr.ph, %40
  %.fr18 = phi i8 [ %.fr15, %.lr.ph ], [ %.fr1, %40 ]
  %.07 = phi ptr [ %.0.val, %.lr.ph ], [ %41, %40 ]
  %9 = add i8 %.fr18, -48
  %or.cond = icmp ult i8 %9, 10
  %10 = and i8 %.fr18, -33
  %11 = add i8 %10, -65
  %12 = icmp ult i8 %11, 26
  %or.cond2 = or i1 %or.cond, %12
  br i1 %or.cond2, label %13, label %switch.early.test

switch.early.test:                                ; preds = %8
  switch i8 %.fr18, label %22 [
    i8 126, label %13
    i8 95, label %13
    i8 94, label %13
    i8 64, label %13
    i8 63, label %13
    i8 62, label %13
    i8 60, label %13
    i8 47, label %13
    i8 46, label %13
    i8 45, label %13
    i8 43, label %13
    i8 42, label %13
    i8 38, label %13
    i8 37, label %13
    i8 36, label %13
    i8 35, label %13
    i8 33, label %13
    i8 32, label %13
  ]

13:                                               ; preds = %switch.early.test, %switch.early.test, %switch.early.test, %switch.early.test, %switch.early.test, %switch.early.test, %switch.early.test, %switch.early.test, %switch.early.test, %switch.early.test, %switch.early.test, %switch.early.test, %switch.early.test, %switch.early.test, %switch.early.test, %switch.early.test, %switch.early.test, %switch.early.test, %8
  call void @llvm.lifetime.start.p0(i64 1, ptr nonnull %3)
  store i8 %.fr18, ptr %3, align 1, !tbaa !8
  %14 = load ptr, ptr %0, align 8, !tbaa !9
  %15 = getelementptr i8, ptr %14, i64 -24
  %16 = load i64, ptr %15, align 8
  %gep4 = getelementptr i8, ptr %invariant.gep, i64 %16
  %17 = load i64, ptr %gep4, align 8, !tbaa !11
  %.not.i.i = icmp eq i64 %17, 0
  br i1 %.not.i.i, label %20, label %18

18:                                               ; preds = %13
  %19 = call noundef nonnull align 8 dereferenceable(8) ptr @_ZSt16__ostream_insertIcSt11char_traitsIcEERSt13basic_ostreamIT_T0_ES6_PKS3_l(ptr noundef nonnull align 8 dereferenceable(8) %0, ptr noundef nonnull %3, i64 noundef 1)
  br label %_ZStlsISt11char_traitsIcEERSt13basic_ostreamIcT_ES5_h.exit

20:                                               ; preds = %13
  %21 = call noundef nonnull align 8 dereferenceable(8) ptr @_ZNSo3putEc(ptr noundef nonnull align 8 dereferenceable(8) %0, i8 noundef signext %.fr18)
  br label %_ZStlsISt11char_traitsIcEERSt13basic_ostreamIcT_ES5_h.exit

_ZStlsISt11char_traitsIcEERSt13basic_ostreamIcT_ES5_h.exit: ; preds = %18, %20
  call void @llvm.lifetime.end.p0(i64 1, ptr nonnull %3)
  br label %40

22:                                               ; preds = %switch.early.test
  call void @llvm.lifetime.start.p0(i64 4, ptr nonnull %4) #12
  store i32 3158064, ptr %4, align 4
  %23 = urem i8 %.fr18, 10
  %24 = or disjoint i8 %23, 48
  store i8 %24, ptr %6, align 2, !tbaa !8
  %25 = udiv i8 %.fr18, 10
  %26 = urem i8 %25, 10
  %27 = or disjoint i8 %26, 48
  store i8 %27, ptr %7, align 1, !tbaa !8
  %28 = udiv i8 %.fr18, 100
  %29 = or disjoint i8 %28, 48
  store i8 %29, ptr %4, align 4, !tbaa !8
  call void @llvm.lifetime.start.p0(i64 1, ptr nonnull %2)
  store i8 92, ptr %2, align 1, !tbaa !8
  %30 = load ptr, ptr %0, align 8, !tbaa !9
  %31 = getelementptr i8, ptr %30, i64 -24
  %32 = load i64, ptr %31, align 8
  %gep = getelementptr i8, ptr %invariant.gep, i64 %32
  %33 = load i64, ptr %gep, align 8, !tbaa !11
  %.not.i = icmp eq i64 %33, 0
  br i1 %.not.i, label %36, label %34

34:                                               ; preds = %22
  %35 = call noundef nonnull align 8 dereferenceable(8) ptr @_ZSt16__ostream_insertIcSt11char_traitsIcEERSt13basic_ostreamIT_T0_ES6_PKS3_l(ptr noundef nonnull align 8 dereferenceable(8) %0, ptr noundef nonnull %2, i64 noundef 1)
  br label %_ZStlsISt11char_traitsIcEERSt13basic_ostreamIcT_ES5_c.exit

36:                                               ; preds = %22
  %37 = call noundef nonnull align 8 dereferenceable(8) ptr @_ZNSo3putEc(ptr noundef nonnull align 8 dereferenceable(8) %0, i8 noundef signext 92)
  br label %_ZStlsISt11char_traitsIcEERSt13basic_ostreamIcT_ES5_c.exit

_ZStlsISt11char_traitsIcEERSt13basic_ostreamIcT_ES5_c.exit: ; preds = %34, %36
  %.0.i = phi ptr [ %35, %34 ], [ %0, %36 ]
  call void @llvm.lifetime.end.p0(i64 1, ptr nonnull %2)
  %38 = call noundef i64 @strlen(ptr noundef nonnull dereferenceable(1) %4) #12
  %39 = call noundef nonnull align 8 dereferenceable(8) ptr @_ZSt16__ostream_insertIcSt11char_traitsIcEERSt13basic_ostreamIT_T0_ES6_PKS3_l(ptr noundef nonnull align 8 dereferenceable(8) %.0.i, ptr noundef nonnull %4, i64 noundef %38)
  call void @llvm.lifetime.end.p0(i64 4, ptr nonnull %4) #12
  br label %40

40:                                               ; preds = %_ZStlsISt11char_traitsIcEERSt13basic_ostreamIcT_ES5_c.exit, %_ZStlsISt11char_traitsIcEERSt13basic_ostreamIcT_ES5_h.exit
  %41 = getelementptr inbounds nuw i8, ptr %.07, i64 1
  %42 = load i8, ptr %41, align 1, !tbaa !8
  %.fr1 = freeze i8 %42
  %.not = icmp eq i8 %.fr1, 0
  br i1 %.not, label %._crit_edge, label %8, !llvm.loop !35

._crit_edge:                                      ; preds = %40, %1
  ret ptr %0
}